target datalayout = "e-m:e-p270:32:32-p271:32:32-p272:64:64-i64:64-i128:128-f80:128-n8:16:32:64-S128"
target triple = "x86_64-pc-linux-gnu"

%struct.expert_field = type { i32, i32 }
%struct._packet_info = type { ptr, ptr, i32, i32, %struct.nstime_t, %struct.nstime_t, %struct.nstime_t, i8, ptr, ptr, ptr, ptr, %struct._address, %struct._address, %struct._address, %struct._address, %struct._address, %struct._address, i32, ptr, i8, [3 x i8], %struct.anon, i32, i32, i32, i32, ptr, i8, ptr, ptr, i16, i16, i32, i32, i16, i32, i32, ptr, ptr, ptr, i8, i8, i16, i16, i16, i32, i16, i16, ptr, ptr, ptr, ptr, ptr, i32, i32 }
%struct.nstime_t = type { i64, i32 }
%struct._address = type { i32, i32, ptr, ptr }
%struct.anon = type { i8, [3 x i8] }

@hf_uftp_destlist = internal global i32 0, align 4
@hf_uftp_dest = internal global i32 0, align 4
@hf_uftp_prstatus = internal global i32 0, align 4
@hf_uftp_prstatus_func = internal global i32 0, align 4
@hf_uftp_prstatus_reserved1 = internal global i32 0, align 4
@hf_uftp_prstatus_file_id = internal global i32 0, align 4
@hf_uftp_prstatus_pass = internal global i32 0, align 4
@hf_uftp_prstatus_seq = internal global i32 0, align 4
@hf_uftp_prstatus_section = internal global i32 0, align 4
@hf_uftp_prstatus_destcount = internal global i32 0, align 4
@hf_uftp_prstatus_reserved2 = internal global i32 0, align 4
@ett_uftp_prstatus = internal global i32 0, align 4
@ett_uftp_destlist = internal global i32 0, align 4
@ei_uftp_length_invalid = internal global %struct.expert_field zeroinitializer, align 4
@.str.289 = private unnamed_addr constant [19 x i8] c"Invalid length: %d\00", align 1
@.str.292 = private unnamed_addr constant [35 x i8] c"Invalid length, len = %d, count=%d\00", align 1
@.str.297 = private unnamed_addr constant [41 x i8] c":%04X  Pass=%d Section=%d Seq=%d NAKs=%d\00", align 1

; Function Attrs: null_pointer_is_valid sspstrong uwtable
define internal void @dissect_uftp_prstatus(ptr noundef %0, ptr noundef %1, ptr noundef %2) #0 {
  %4 = alloca ptr, align 8
  %5 = alloca ptr, align 8
  %6 = alloca ptr, align 8
  %7 = alloca ptr, align 8
  %8 = alloca ptr, align 8
  %9 = alloca ptr, align 8
  %10 = alloca ptr, align 8
  %11 = alloca i32, align 4
  %12 = alloca i8, align 1
  %13 = alloca i8, align 1
  %14 = alloca i16, align 2
  %15 = alloca i16, align 2
  %16 = alloca i16, align 2
  %17 = alloca i16, align 2
  %18 = alloca i32, align 4
  %19 = alloca i32, align 4
  store ptr %0, ptr %4, align 8
  store ptr %1, ptr %5, align 8
  store ptr %2, ptr %6, align 8
  call void @llvm.lifetime.start.p0(i64 8, ptr %7) #3
  store ptr null, ptr %7, align 8
  call void @llvm.lifetime.start.p0(i64 8, ptr %8) #3
  store ptr null, ptr %8, align 8
  call void @llvm.lifetime.start.p0(i64 8, ptr %9) #3
  store ptr null, ptr %9, align 8
  call void @llvm.lifetime.start.p0(i64 8, ptr %10) #3
  store ptr null, ptr %10, align 8
  call void @llvm.lifetime.start.p0(i64 4, ptr %11) #3
  store i32 0, ptr %11, align 4
  call void @llvm.lifetime.start.p0(i64 1, ptr %12) #3
  call void @llvm.lifetime.start.p0(i64 1, ptr %13) #3
  call void @llvm.lifetime.start.p0(i64 2, ptr %14) #3
  call void @llvm.lifetime.start.p0(i64 2, ptr %15) #3
  call void @llvm.lifetime.start.p0(i64 2, ptr %16) #3
  call void @llvm.lifetime.start.p0(i64 2, ptr %17) #3
  call void @llvm.lifetime.start.p0(i64 4, ptr %18) #3
  %20 = load ptr, ptr %4, align 8
  %21 = call i32 @tvb_reported_length(ptr noundef %20)
  %22 = icmp ult i32 %21, 12
  br i1 %22, label %23, label %31

23:                                               ; preds = %3
  %24 = load ptr, ptr %6, align 8
  %25 = load ptr, ptr %5, align 8
  %26 = load ptr, ptr %4, align 8
  %27 = load i32, ptr %11, align 4
  %28 = load ptr, ptr %4, align 8
  %29 = call i32 @tvb_reported_length(ptr noundef %28)
  %30 = call ptr (ptr, ptr, ptr, ptr, i32, i32, ptr, ...) @proto_tree_add_expert_format(ptr noundef %24, ptr noundef %25, ptr noundef @ei_uftp_length_invalid, ptr noundef %26, i32 noundef %27, i32 noundef -1, ptr noundef @.str.289, i32 noundef %29)
  store i32 1, ptr %19, align 4
  br label %172

31:                                               ; preds = %3
  %32 = load ptr, ptr %4, align 8
  %33 = call zeroext i16 @tvb_get_ntohs(ptr noundef %32, i32 noundef 8)
  store i16 %33, ptr %15, align 2
  %34 = load ptr, ptr %4, align 8
  %35 = call i32 @tvb_reported_length(ptr noundef %34)
  %36 = load i16, ptr %15, align 2
  %37 = zext i16 %36 to i32
  %38 = mul i32 %37, 4
  %39 = add i32 12, %38
  %40 = icmp slt i32 %35, %39
  br i1 %40, label %41, label %51

41:                                               ; preds = %31
  %42 = load ptr, ptr %6, align 8
  %43 = load ptr, ptr %5, align 8
  %44 = load ptr, ptr %4, align 8
  %45 = load i32, ptr %11, align 4
  %46 = load ptr, ptr %4, align 8
  %47 = call i32 @tvb_reported_length(ptr noundef %46)
  %48 = load i16, ptr %15, align 2
  %49 = zext i16 %48 to i32
  %50 = call ptr (ptr, ptr, ptr, ptr, i32, i32, ptr, ...) @proto_tree_add_expert_format(ptr noundef %42, ptr noundef %43, ptr noundef @ei_uftp_length_invalid, ptr noundef %44, i32 noundef %45, i32 noundef -1, ptr noundef @.str.292, i32 noundef %47, i32 noundef %49)
  store i32 1, ptr %19, align 4
  br label %172

51:                                               ; preds = %31
  %52 = load ptr, ptr %4, align 8
  %53 = call zeroext i16 @tvb_get_ntohs(ptr noundef %52, i32 noundef 2)
  store i16 %53, ptr %14, align 2
  %54 = load ptr, ptr %4, align 8
  %55 = call zeroext i16 @tvb_get_ntohs(ptr noundef %54, i32 noundef 2)
  store i16 %55, ptr %17, align 2
  %56 = load ptr, ptr %4, align 8
  %57 = call zeroext i8 @tvb_get_uint8(ptr noundef %56, i32 noundef 4)
  store i8 %57, ptr %12, align 1
  %58 = load ptr, ptr %4, align 8
  %59 = call zeroext i8 @tvb_get_uint8(ptr noundef %58, i32 noundef 5)
  store i8 %59, ptr %13, align 1
  %60 = load ptr, ptr %4, align 8
  %61 = call i32 @tvb_get_ntohl(ptr noundef %60, i32 noundef 8)
  store i32 %61, ptr %18, align 4
  %62 = load ptr, ptr %5, align 8
  %63 = getelementptr inbounds nuw %struct._packet_info, ptr %62, i32 0, i32 1
  %64 = load ptr, ptr %63, align 8
  %65 = load i16, ptr %14, align 2
  %66 = zext i16 %65 to i32
  %67 = load i8, ptr %12, align 1
  %68 = zext i8 %67 to i32
  %69 = load i16, ptr %17, align 2
  %70 = zext i16 %69 to i32
  %71 = load i8, ptr %13, align 1
  %72 = zext i8 %71 to i32
  %73 = load i32, ptr %18, align 4
  call void (ptr, i32, ptr, ...) @col_append_fstr(ptr noundef %64, i32 noundef 25, ptr noundef @.str.297, i32 noundef %66, i32 noundef %68, i32 noundef %70, i32 noundef %72, i32 noundef %73)
  %74 = load ptr, ptr %6, align 8
  %75 = load i32, ptr @hf_uftp_prstatus, align 4
  %76 = load ptr, ptr %4, align 8
  %77 = load i32, ptr %11, align 4
  %78 = call ptr @proto_tree_add_item(ptr noundef %74, i32 noundef %75, ptr noundef %76, i32 noundef %77, i32 noundef -1, i32 noundef 0)
  store ptr %78, ptr %7, align 8
  %79 = load ptr, ptr %7, align 8
  %80 = load i32, ptr @ett_uftp_prstatus, align 4
  %81 = call ptr @proto_item_add_subtree(ptr noundef %79, i32 noundef %80)
  store ptr %81, ptr %9, align 8
  %82 = load ptr, ptr %9, align 8
  %83 = load i32, ptr @hf_uftp_prstatus_func, align 4
  %84 = load ptr, ptr %4, align 8
  %85 = load i32, ptr %11, align 4
  %86 = call ptr @proto_tree_add_item(ptr noundef %82, i32 noundef %83, ptr noundef %84, i32 noundef %85, i32 noundef 1, i32 noundef 0)
  %87 = load i32, ptr %11, align 4
  %88 = add i32 %87, 1
  store i32 %88, ptr %11, align 4
  %89 = load ptr, ptr %9, align 8
  %90 = load i32, ptr @hf_uftp_prstatus_reserved1, align 4
  %91 = load ptr, ptr %4, align 8
  %92 = load i32, ptr %11, align 4
  %93 = call ptr @proto_tree_add_item(ptr noundef %89, i32 noundef %90, ptr noundef %91, i32 noundef %92, i32 noundef 1, i32 noundef 0)
  %94 = load i32, ptr %11, align 4
  %95 = add i32 %94, 1
  store i32 %95, ptr %11, align 4
  %96 = load ptr, ptr %9, align 8
  %97 = load i32, ptr @hf_uftp_prstatus_file_id, align 4
  %98 = load ptr, ptr %4, align 8
  %99 = load i32, ptr %11, align 4
  %100 = call ptr @proto_tree_add_item(ptr noundef %96, i32 noundef %97, ptr noundef %98, i32 noundef %99, i32 noundef 2, i32 noundef 0)
  %101 = load i32, ptr %11, align 4
  %102 = add i32 %101, 2
  store i32 %102, ptr %11, align 4
  %103 = load ptr, ptr %9, align 8
  %104 = load i32, ptr @hf_uftp_prstatus_pass, align 4
  %105 = load ptr, ptr %4, align 8
  %106 = load i32, ptr %11, align 4
  %107 = call ptr @proto_tree_add_item(ptr noundef %103, i32 noundef %104, ptr noundef %105, i32 noundef %106, i32 noundef 1, i32 noundef 0)
  %108 = load i32, ptr %11, align 4
  %109 = add i32 %108, 1
  store i32 %109, ptr %11, align 4
  %110 = load ptr, ptr %9, align 8
  %111 = load i32, ptr @hf_uftp_prstatus_seq, align 4
  %112 = load ptr, ptr %4, align 8
  %113 = load i32, ptr %11, align 4
  %114 = call ptr @proto_tree_add_item(ptr noundef %110, i32 noundef %111, ptr noundef %112, i32 noundef %113, i32 noundef 1, i32 noundef 0)
  %115 = load i32, ptr %11, align 4
  %116 = add i32 %115, 1
  store i32 %116, ptr %11, align 4
  %117 = load ptr, ptr %9, align 8
  %118 = load i32, ptr @hf_uftp_prstatus_section, align 4
  %119 = load ptr, ptr %4, align 8
  %120 = load i32, ptr %11, align 4
  %121 = call ptr @proto_tree_add_item(ptr noundef %117, i32 noundef %118, ptr noundef %119, i32 noundef %120, i32 noundef 2, i32 noundef 0)
  %122 = load i32, ptr %11, align 4
  %123 = add i32 %122, 2
  store i32 %123, ptr %11, align 4
  %124 = load ptr, ptr %9, align 8
  %125 = load i32, ptr @hf_uftp_prstatus_destcount, align 4
  %126 = load ptr, ptr %4, align 8
  %127 = load i32, ptr %11, align 4
  %128 = call ptr @proto_tree_add_item(ptr noundef %124, i32 noundef %125, ptr noundef %126, i32 noundef %127, i32 noundef 2, i32 noundef 0)
  %129 = load i32, ptr %11, align 4
  %130 = add i32 %129, 2
  store i32 %130, ptr %11, align 4
  %131 = load ptr, ptr %9, align 8
  %132 = load i32, ptr @hf_uftp_prstatus_reserved2, align 4
  %133 = load ptr, ptr %4, align 8
  %134 = load i32, ptr %11, align 4
  %135 = call ptr @proto_tree_add_item(ptr noundef %131, i32 noundef %132, ptr noundef %133, i32 noundef %134, i32 noundef 2, i32 noundef 0)
  %136 = load i32, ptr %11, align 4
  %137 = add i32 %136, 2
  store i32 %137, ptr %11, align 4
  %138 = load i16, ptr %15, align 2
  %139 = zext i16 %138 to i32
  %140 = icmp sgt i32 %139, 0
  br i1 %140, label %141, label %153

141:                                              ; preds = %51
  %142 = load ptr, ptr %9, align 8
  %143 = load i32, ptr @hf_uftp_destlist, align 4
  %144 = load ptr, ptr %4, align 8
  %145 = load i32, ptr %11, align 4
  %146 = load i16, ptr %15, align 2
  %147 = zext i16 %146 to i32
  %148 = mul i32 %147, 4
  %149 = call ptr @proto_tree_add_item(ptr noundef %142, i32 noundef %143, ptr noundef %144, i32 noundef %145, i32 noundef %148, i32 noundef 0)
  store ptr %149, ptr %8, align 8
  %150 = load ptr, ptr %8, align 8
  %151 = load i32, ptr @ett_uftp_destlist, align 4
  %152 = call ptr @proto_item_add_subtree(ptr noundef %150, i32 noundef %151)
  store ptr %152, ptr %10, align 8
  br label %153

153:                                              ; preds = %141, %51
  store i16 0, ptr %16, align 2
  br label %154

154:                                              ; preds = %168, %153
  %155 = load i16, ptr %16, align 2
  %156 = zext i16 %155 to i32
  %157 = load i16, ptr %15, align 2
  %158 = zext i16 %157 to i32
  %159 = icmp slt i32 %156, %158
  br i1 %159, label %160, label %171

160:                                              ; preds = %154
  %161 = load ptr, ptr %10, align 8
  %162 = load i32, ptr @hf_uftp_dest, align 4
  %163 = load ptr, ptr %4, align 8
  %164 = load i32, ptr %11, align 4
  %165 = call ptr @proto_tree_add_item(ptr noundef %161, i32 noundef %162, ptr noundef %163, i32 noundef %164, i32 noundef 4, i32 noundef 0)
  %166 = load i32, ptr %11, align 4
  %167 = add i32 %166, 4
  store i32 %167, ptr %11, align 4
  br label %168

168:                                              ; preds = %160
  %169 = load i16, ptr %16, align 2
  %170 = add i16 %169, 1
  store i16 %170, ptr %16, align 2
  br label %154, !llvm.loop !15

171:                                              ; preds = %154
  store i32 0, ptr %19, align 4
  br label %172

172:                                              ; preds = %171, %41, %23
  call void @llvm.lifetime.end.p0(i64 4, ptr %18) #3
  call void @llvm.lifetime.end.p0(i64 2, ptr %17) #3
  call void @llvm.lifetime.end.p0(i64 2, ptr %16) #3
  call void @llvm.lifetime.end.p0(i64 2, ptr %15) #3
  call void @llvm.lifetime.end.p0(i64 2, ptr %14) #3
  call void @llvm.lifetime.end.p0(i64 1, ptr %13) #3
  call void @llvm.lifetime.end.p0(i64 1, ptr %12) #3
  call void @llvm.lifetime.end.p0(i64 4, ptr %11) #3
  call void @llvm.lifetime.end.p0(i64 8, ptr %10) #3
  call void @llvm.lifetime.end.p0(i64 8, ptr %9) #3
  call void @llvm.lifetime.end.p0(i64 8, ptr %8) #3
  call void @llvm.lifetime.end.p0(i64 8, ptr %7) #3
  %173 = load i32, ptr %19, align 4
  switch i32 %173, label %175 [
    i32 0, label %174
    i32 1, label %174
  ]

174:                                              ; preds = %172, %172
  ret void

175:                                              ; preds = %172
  unreachable
}