; Function Attrs: null_pointer_is_valid sspstrong uwtable
define internal fastcc void @dissect_uftp_prstatus(ptr noundef %0, ptr noundef %1, ptr noundef %2) unnamed_addr #0 {
  %4 = tail call i32 @tvb_reported_length(ptr noundef %0)
  %5 = icmp ult i32 %4, 12
  br i1 %5, label %6, label %9

6:                                                ; preds = %3
  %7 = tail call i32 @tvb_reported_length(ptr noundef %0)
  %8 = tail call ptr (ptr, ptr, ptr, ptr, i32, i32, ptr, ...) @proto_tree_add_expert_format(ptr noundef %2, ptr noundef %1, ptr noundef nonnull @ei_uftp_length_invalid, ptr noundef %0, i32 noundef 0, i32 noundef -1, ptr noundef nonnull @.str.289, i32 noundef %7)
  br label %.loopexit

9:                                                ; preds = %3
  %10 = tail call zeroext i16 @tvb_get_ntohs(ptr noundef %0, i32 noundef 8)
  %11 = tail call i32 @tvb_reported_length(ptr noundef %0)
  %12 = zext i16 %10 to i32
  %13 = shl nuw nsw i32 %12, 2
  %14 = add nuw nsw i32 %13, 12
  %15 = icmp slt i32 %11, %14
  br i1 %15, label %16, label %19

16:                                               ; preds = %9
  %17 = tail call i32 @tvb_reported_length(ptr noundef %0)
  %18 = tail call ptr (ptr, ptr, ptr, ptr, i32, i32, ptr, ...) @proto_tree_add_expert_format(ptr noundef %2, ptr noundef %1, ptr noundef nonnull @ei_uftp_length_invalid, ptr noundef %0, i32 noundef 0, i32 noundef -1, ptr noundef nonnull @.str.292, i32 noundef %17, i32 noundef %12)
  br label %.loopexit

19:                                               ; preds = %9
  %20 = tail call zeroext i16 @tvb_get_ntohs(ptr noundef %0, i32 noundef 2)
  %21 = tail call zeroext i16 @tvb_get_ntohs(ptr noundef %0, i32 noundef 2)
  %22 = tail call zeroext i8 @tvb_get_uint8(ptr noundef %0, i32 noundef 4)
  %23 = tail call zeroext i8 @tvb_get_uint8(ptr noundef %0, i32 noundef 5)
  %24 = tail call i32 @tvb_get_ntohl(ptr noundef %0, i32 noundef 8)
  %25 = getelementptr inbounds nuw i8, ptr %1, i64 8
  %26 = load ptr, ptr %25, align 8
  %27 = zext i16 %20 to i32
  %28 = zext i8 %22 to i32
  %29 = zext i16 %21 to i32
  %30 = zext i8 %23 to i32
  tail call void (ptr, i32, ptr, ...) @col_append_fstr(ptr noundef %26, i32 noundef 25, ptr noundef nonnull @.str.297, i32 noundef %27, i32 noundef %28, i32 noundef %29, i32 noundef %30, i32 noundef %24)
  %31 = load i32, ptr @hf_uftp_prstatus, align 4
  %32 = tail call ptr @proto_tree_add_item(ptr noundef %2, i32 noundef %31, ptr noundef %0, i32 noundef 0, i32 noundef -1, i32 noundef 0)
  %33 = load i32, ptr @ett_uftp_prstatus, align 4
  %34 = tail call ptr @proto_item_add_subtree(ptr noundef %32, i32 noundef %33)
  %35 = load i32, ptr @hf_uftp_prstatus_func, align 4
  %36 = tail call ptr @proto_tree_add_item(ptr noundef %34, i32 noundef %35, ptr noundef %0, i32 noundef 0, i32 noundef 1, i32 noundef 0)
  %37 = load i32, ptr @hf_uftp_prstatus_reserved1, align 4
  %38 = tail call ptr @proto_tree_add_item(ptr noundef %34, i32 noundef %37, ptr noundef %0, i32 noundef 1, i32 noundef 1, i32 noundef 0)
  %39 = load i32, ptr @hf_uftp_prstatus_file_id, align 4
  %40 = tail call ptr @proto_tree_add_item(ptr noundef %34, i32 noundef %39, ptr noundef %0, i32 noundef 2, i32 noundef 2, i32 noundef 0)
  %41 = load i32, ptr @hf_uftp_prstatus_pass, align 4
  %42 = tail call ptr @proto_tree_add_item(ptr noundef %34, i32 noundef %41, ptr noundef %0, i32 noundef 4, i32 noundef 1, i32 noundef 0)
  %43 = load i32, ptr @hf_uftp_prstatus_seq, align 4
  %44 = tail call ptr @proto_tree_add_item(ptr noundef %34, i32 noundef %43, ptr noundef %0, i32 noundef 5, i32 noundef 1, i32 noundef 0)
  %45 = load i32, ptr @hf_uftp_prstatus_section, align 4
  %46 = tail call ptr @proto_tree_add_item(ptr noundef %34, i32 noundef %45, ptr noundef %0, i32 noundef 6, i32 noundef 2, i32 noundef 0)
  %47 = load i32, ptr @hf_uftp_prstatus_destcount, align 4
  %48 = tail call ptr @proto_tree_add_item(ptr noundef %34, i32 noundef %47, ptr noundef %0, i32 noundef 8, i32 noundef 2, i32 noundef 0)
  %49 = load i32, ptr @hf_uftp_prstatus_reserved2, align 4
  %50 = tail call ptr @proto_tree_add_item(ptr noundef %34, i32 noundef %49, ptr noundef %0, i32 noundef 10, i32 noundef 2, i32 noundef 0)
  %.not = icmp eq i16 %10, 0
  br i1 %.not, label %.loopexit, label %.lr.ph.preheader

.lr.ph.preheader:                                 ; preds = %19
  %51 = load i32, ptr @hf_uftp_destlist, align 4
  %52 = tail call ptr @proto_tree_add_item(ptr noundef %34, i32 noundef %51, ptr noundef %0, i32 noundef 12, i32 noundef %13, i32 noundef 0)
  %53 = load i32, ptr @ett_uftp_destlist, align 4
  %54 = tail call ptr @proto_item_add_subtree(ptr noundef %52, i32 noundef %53)
  br label %.lr.ph

.lr.ph:                                           ; preds = %.lr.ph.preheader, %.lr.ph
  %.077 = phi i16 [ %58, %.lr.ph ], [ 0, %.lr.ph.preheader ]
  %.07576 = phi i32 [ %57, %.lr.ph ], [ 12, %.lr.ph.preheader ]
  %55 = load i32, ptr @hf_uftp_dest, align 4
  %56 = tail call ptr @proto_tree_add_item(ptr noundef %54, i32 noundef %55, ptr noundef %0, i32 noundef %.07576, i32 noundef 4, i32 noundef 0)
  %57 = add nuw nsw i32 %.07576, 4
  %58 = add nuw i16 %.077, 1
  %exitcond.not = icmp eq i16 %58, %10
  br i1 %exitcond.not, label %.loopexit, label %.lr.ph, !llvm.loop !15

.loopexit:                                        ; preds = %.lr.ph, %19, %16, %6
  ret void
}